; Function Attrs: mustprogress nounwind uwtable
define hidden void @_ZN14Deoptimization21deoptimize_all_markedEv() local_unnamed_addr #0 align 2 {
  %1 = alloca %class.DeoptimizeMarkedClosure, align 8
  %2 = tail call align 8 ptr @llvm.threadlocal.address.p0(ptr align 8 @_ZN6Thread12_thr_currentE)
  %3 = load ptr, ptr %2, align 8
  %4 = getelementptr inbounds i8, ptr %3, i64 800
  %5 = load ptr, ptr %4, align 8
  %6 = getelementptr inbounds i8, ptr %5, i64 24
  %7 = load ptr, ptr %6, align 8
  %8 = getelementptr inbounds i8, ptr %5, i64 32
  %9 = load ptr, ptr %8, align 8
  %10 = getelementptr inbounds i8, ptr %5, i64 40
  %11 = load ptr, ptr %10, align 8
  %12 = getelementptr inbounds i8, ptr %5, i64 8
  %13 = load i64, ptr %12, align 8
  tail call void @_ZN9CodeCache32make_marked_nmethods_deoptimizedEv() #22
  %14 = getelementptr inbounds i8, ptr %1, i64 8
  store ptr @.str.114, ptr %14, align 8
  store ptr getelementptr inbounds inrange(-16, 48) (i8, ptr @_ZTV23DeoptimizeMarkedClosure, i64 16), ptr %1, align 8
  %15 = load volatile i32, ptr @_ZN20SafepointSynchronize6_stateE, align 4
  %16 = icmp eq i32 %15, 2
  br i1 %16, label %17, label %18

17:                                               ; preds = %0
  call void @_ZN7Threads15java_threads_doEP13ThreadClosure(ptr noundef nonnull %1) #22
  br label %19

18:                                               ; preds = %0
  call void @_ZN9Handshake7executeEP16HandshakeClosure(ptr noundef nonnull %1) #22
  br label %19

19:                                               ; preds = %18, %17
  %20 = load ptr, ptr %7, align 8
  %.not.i.i.i.i = icmp eq ptr %20, null
  br i1 %.not.i.i.i.i, label %22, label %21

21:                                               ; preds = %19
  call void @_ZN5Arena17set_size_in_bytesEm(ptr noundef nonnull align 8 dereferenceable(48) %5, i64 noundef %13) #22
  call void @_ZN5Chunk9next_chopEPS_(ptr noundef nonnull %7) #22
  br label %22

22:                                               ; preds = %21, %19
  %23 = load ptr, ptr %8, align 8
  %.not8.i.i.i.i = icmp eq ptr %23, %9
  br i1 %.not8.i.i.i.i, label %_ZN12ResourceMarkD2Ev.exit, label %24

24:                                               ; preds = %22
  store ptr %7, ptr %6, align 8
  store ptr %9, ptr %8, align 8
  store ptr %11, ptr %10, align 8
  br label %_ZN12ResourceMarkD2Ev.exit

_ZN12ResourceMarkD2Ev.exit:                       ; preds = %22, %24
  ret void
}